; Function Attrs: nounwind uwtable
define dso_local ptr @Curl_dynhds_cget(ptr noundef readonly captures(none) %0, ptr noundef %1) local_unnamed_addr #1 {
  %3 = tail call i64 @strlen(ptr noundef nonnull dereferenceable(1) %1) #10
  %4 = getelementptr inbounds nuw i8, ptr %0, i64 8
  %5 = load i64, ptr %4, align 8, !tbaa !16
  %.not16.i = icmp eq i64 %5, 0
  br i1 %.not16.i, label %Curl_dynhds_get.exit, label %.lr.ph.i

.lr.ph.i:                                         ; preds = %2, %20
  %6 = phi i64 [ %21, %20 ], [ %5, %2 ]
  %.015.i = phi i64 [ %22, %20 ], [ 0, %2 ]
  %7 = load ptr, ptr %0, align 8, !tbaa !15
  %8 = getelementptr inbounds nuw ptr, ptr %7, i64 %.015.i
  %9 = load ptr, ptr %8, align 8, !tbaa !17
  %10 = getelementptr inbounds nuw i8, ptr %9, i64 16
  %11 = load i64, ptr %10, align 8, !tbaa !23
  %12 = icmp eq i64 %11, %3
  br i1 %12, label %13, label %20

13:                                               ; preds = %.lr.ph.i
  %14 = load ptr, ptr %9, align 8, !tbaa !26
  %15 = tail call i32 @curl_strnequal(ptr noundef %14, ptr noundef nonnull %1, i64 noundef %3) #9
  %.not.i = icmp eq i32 %15, 0
  br i1 %.not.i, label %._crit_edge.i, label %16

._crit_edge.i:                                    ; preds = %13
  %.pre.i = load i64, ptr %4, align 8, !tbaa !16
  br label %20

16:                                               ; preds = %13
  %17 = load ptr, ptr %0, align 8, !tbaa !15
  %18 = getelementptr inbounds nuw ptr, ptr %17, i64 %.015.i
  %19 = load ptr, ptr %18, align 8, !tbaa !17
  br label %Curl_dynhds_get.exit

20:                                               ; preds = %._crit_edge.i, %.lr.ph.i
  %21 = phi i64 [ %.pre.i, %._crit_edge.i ], [ %6, %.lr.ph.i ]
  %22 = add nuw i64 %.015.i, 1
  %23 = icmp ult i64 %22, %21
  br i1 %23, label %.lr.ph.i, label %Curl_dynhds_get.exit, !llvm.loop !27

Curl_dynhds_get.exit:                             ; preds = %20, %2, %16
  %.012.i = phi ptr [ %19, %16 ], [ null, %2 ], [ null, %20 ]
  ret ptr %.012.i
}